(lp0
S'\r'
p1
aS'acorn squash'
p2
aS'alfalfa sprouts'
p3
aS'almond'
p4
aS'anchovy'
p5
aS'anise'
p6
aS'appetizer'
p7
aS'appetite'
p8
aS'apricot'
p9
aS'artichoke'
p10
aS'asparagus'
p11
aS'aspic'
p12
aS'ate'
p13
aS'avocado'
p14
aS'bacon'
p15
aS'bagel'
p16
aS'bake'
p17
aS'baked Alaska'
p18
aS'bamboo shoots'
p19
aS'barbecue'
p20
aS'barley'
p21
aS'basil'
p22
aS'batter'
p23
aS'beancurd'
p24
aS'beans'
p25
aS'beef'
p26
aS'beet'
p27
aS'bell pepper'
p28
aS'berry'
p29
aS'biscuit'
p30
aS'bitter'
p31
aS'black beans'
p32
aS'blackberry'
p33
aS'black-eyed peas'
p34
aS'black tea'
p35
aS'bland'
p36
aS'blood orange'
p37
aS'blueberry'
p38
aS'boil'
p39
aS'bowl'
p40
aS'boysenberry'
p41
aS'bran'
p42
aS'bread'
p43
aS'breadfruit'
p44
aS'brisket'
p45
aS'broccoli'
p46
aS'broil'
p47
aS'brownie'
p48
aS'brown rice'
p49
aS'brunch'
p50
aS'Brussels sprouts'
p51
aS'buckwheat'
p52
aS'burrito'
p53
aS'butter bean'
p54
aS'calorie'
p55
aS'candy apple'
p56
aS'cantaloupe'
p57
aS'capers'
p58
aS'caramel'
p59
aS'caramel apple'
p60
aS'carbohydrate'
p61
aS'cashew'
p62
aS'cassava'
p63
aS'casserole'
p64
aS'cater'
p65
aS'cauliflower'
p66
aS'caviar'
p67
aS'cayenne pepper'
p68
aS'celery'
p69
aS'cereal'
p70
aS'chard'
p71
aS'cheddar'
p72
aS'cheesecake'
p73
aS'chef'
p74
aS'cherry'
p75
aS'chew'
p76
aS'chicken'
p77
aS'chick peas'
p78
aS'chili'
p79
aS'chips'
p80
aS'chives'
p81
aS'chocolate'
p82
aS'chopsticks'
p83
aS'chow'
p84
aS'chutney'
p85
aS'cilantro'
p86
aS'cinnamon'
p87
aS'citron'
p88
aS'citrus'
p89
aS'clam'
p90
aS'cloves'
p91
aS'cobbler'
p92
aS'coconut'
p93
aS'cod'
p94
aS'coffee'
p95
aS'coleslaw'
p96
aS'collard greens'
p97
aS'comestibles'
p98
aS'cook'
p99
aS'cookie'
p100
aS'cornflakes'
p101
aS'cornmeal'
p102
aS'cottage cheese'
p103
aS'crab'
p104
aS'crackers'
p105
aS'cranberry'
p106
aS'cream'
p107
aS'cream cheese'
p108
aS'crepe'
p109
aS'crisp'
p110
aS'crunch'
p111
aS'crust'
p112
aS'cucumber'
p113
aS'cuisine'
p114
aS'cupboard'
p115
aS'curds'
p116
aS'currants'
p117
aS'curry'
p118
aS'custard'
p119
aS'daikon'
p120
aS'daily bread'
p121
aS'dandelion greens'
p122
aS'Danish pastry'
p123
aS'dates'
p124
aS'diet'
p125
aS'digest'
p126
aS'digestive system'
p127
aS'dill'
p128
aS'dine'
p129
aS'diner'
p130
aS'dip'
p131
aS'dish'
p132
aS'dough'
p133
aS'dragonfruit'
p134
aS'dressing'
p135
aS'dried'
p136
aS'drink'
p137
aS'dry'
p138
aS'durian'
p139
aS'eat'
p140
aS'Edam cheese'
p141
aS'edible'
p142
aS'eggplant'
p143
aS'elderberry'
p144
aS'endive'
p145
aS'entree'
p146
aS'fast'
p147
aS'fat'
p148
aS'fava bans'
p149
aS'fed'
p150
aS'feed'
p151
aS'fennel'
p152
aS'fig'
p153
aS'fillet'
p154
aS'fire'
p155
aS'flan'
p156
aS'flax'
p157
aS'flour'
p158
aS'foodstuffs'
p159
aS'fork'
p160
aS'freezer'
p161
aS'French fries'
p162
aS'fried'
p163
aS'fritter'
p164
aS'frosting'
p165
aS'fry'
p166
aS'garlic'
p167
aS'gastronomy'
p168
aS'gelatin'
p169
aS'ginger'
p170
aS'gingerale'
p171
aS'glasses'
p172
aS'Gouda cheese'
p173
aS'granola'
p174
aS'grape'
p175
aS'grapefruit'
p176
aS'grated'
p177
aS'gravy'
p178
aS'greenbean'
p179
aS'greens'
p180
aS'green tea'
p181
aS'grub'
p182
aS'guacamole'
p183
aS'guava'
p184
aS'gyro'
p185
aS'herbs'
p186
aS'halibut'
p187
aS'ham'
p188
aS'hamburger'
p189
aS'hash'
p190
aS'hazelnut'
p191
aS'herbs'
p192
aS'honey'
p193
aS'honeydew'
p194
aS'horseradish'
p195
aS'hot'
p196
aS'hot dog'
p197
aS'hot sauce'
p198
aS'hummus'
p199
aS'hunger'
p200
aS'hungry'
p201
aS'ice'
p202
aS'iceberg lettuce'
p203
aS'iced tea'
p204
aS'icing'
p205
aS'jackfruit'
p206
aS'jalapeno'
p207
aS'jam'
p208
aS'jelly'
p209
aS'jicama'
p210
aS'jimmies'
p211
aS'Jordan almonds'
p212
aS'jug'
p213
aS'julienne'
p214
aS'juice'
p215
aS'junk food'
p216
aS'kale'
p217
aS'kebab'
p218
aS'ketchup'
p219
aS'kettle'
p220
aS'kettle corn'
p221
aS'kidney beans'
p222
aS'kitchen'
p223
aS'kiwi'
p224
aS'knife'
p225
aS'kohlrabi'
p226
aS'kumquat'
p227
aS'ladle'
p228
aS'lamb'
p229
aS'lard'
p230
aS'lasagna'
p231
aS'legumes'
p232
aS'lemon'
p233
aS'lemonade'
p234
aS'lentils'
p235
aS'lettuce'
p236
aS'licorice'
p237
aS'lima beans'
p238
aS'lime'
p239
aS'liver'
p240
aS'loaf'
p241
aS'lobster'
p242
aS'loquat'
p243
aS'lox'
p244
aS'lunchmeat'
p245
aS'lychee'
p246
aS'macaroni'
p247
aS'macaroon'
p248
aS'main course'
p249
aS'maize'
p250
aS'mandarin orange'
p251
aS'mango'
p252
aS'maple syrup'
p253
aS'margarine'
p254
aS'marionberry'
p255
aS'marmalade'
p256
aS'marshmallow'
p257
aS'mashed potatoes'
p258
aS'mayonnaise'
p259
aS'meatball'
p260
aS'meatloaf'
p261
aS'melon'
p262
aS'menu'
p263
aS'meringue'
p264
aS'micronutrient'
p265
aS'milk'
p266
aS'milkshake'
p267
aS'millet'
p268
aS'mincemeat'
p269
aS'minerals'
p270
aS'mint'
p271
aS'mints'
p272
aS'mochi'
p273
aS'molasses'
p274
aS'mole sauce'
p275
aS'mozzarella'
p276
aS'mug'
p277
aS'munch'
p278
aS'mushroom'
p279
aS'mussels'
p280
aS'mustard'
p281
aS'mustard greens'
p282
aS'mutton'
p283
aS'napkin'
p284
aS'nectar'
p285
aS'nectarine'
p286
aS'nibble'
p287
aS'noodles'
p288
aS'nosh'
p289
aS'nourish'
p290
aS'nourishment'
p291
aS'nut'
p292
aS'nutmeg'
p293
aS'nutrient'
p294
aS'nutritious'
p295
aS'oats'
p296
aS'oatmeal'
p297
aS'oil'
p298
aS'okra'
p299
aS'oleo'
p300
aS'olive'
p301
aS'omelet'
p302
aS'omnivore'
p303
aS'onion'
p304
aS'orange'
p305
aS'order'
p306
aS'oregano'
p307
aS'oven'
p308
aS'oyster'
p309
aS'pan'
p310
aS'pancake'
p311
aS'papaya'
p312
aS'parsley'
p313
aS'parsnip'
p314
aS'pasta'
p315
aS'pastry'
p316
aS'pate'
p317
aS'patty'
p318
aS'pattypan squash'
p319
aS'peach'
p320
aS'peanut butter'
p321
aS'pea'
p322
aS'pear'
p323
aS'pecan'
p324
aS'peapod'
p325
aS'pepperoni'
p326
aS'persimmon'
p327
aS'pickle'
p328
aS'picnic'
p329
aS'pie'
p330
aS'pilaf'
p331
aS'pineapple'
p332
aS'pita bread'
p333
aS'pitcher'
p334
aS'plate'
p335
aS'platter'
p336
aS'plum'
p337
aS'poached'
p338
aS'pomegranate'
p339
aS'pomelo'
p340
aS'pop'
p341
aS'popsicle'
p342
aS'popcorn'
p343
aS'popovers'
p344
aS'pork'
p345
aS'pork chops'
p346
aS'pot'
p347
aS'pot roast'
p348
aS'preserves'
p349
aS'pretzel'
p350
aS'prime rib'
p351
aS'protein'
p352
aS'provisions'
p353
aS'prune'
p354
aS'pudding'
p355
aS'pumpernickel'
p356
aS'punch'
p357
aS'quiche'
p358
aS'quinoa'
p359
aS'radish'
p360
aS'raisin'
p361
aS'raspberry'
p362
aS'rations'
p363
aS'ravioli'
p364
aS'recipe'
p365
aS'refreshments'
p366
aS'refrigerator'
p367
aS'relish'
p368
aS'rhubarb'
p369
aS'ribs'
p370
aS'rice'
p371
aS'roast'
p372
aS'roll'
p373
aS'rolling pin'
p374
aS'romaine'
p375
aS'rosemary'
p376
aS'rye'
p377
aS'saffron'
p378
aS'sage'
p379
aS'salad'
p380
aS'salami'
p381
aS'salmon'
p382
aS'salsa'
p383
aS'salt'
p384
aS'sauce'
p385
aS'sauerkraut'
p386
aS'savory'
p387
aS'scallops'
p388
aS'scrambled'
p389
aS'seaweed'
p390
aS'seeds'
p391
aS'sesame seed'
p392
aS'shallots'
p393
aS'sherbet'
p394
aS'shish kebab'
p395
aS'shrimp'
p396
aS'slaw'
p397
aS'slice'
p398
aS'smoked'
p399
aS'soda'
p400
aS'soda bread'
p401
aS'sole'
p402
aS'sorbet'
p403
aS'sorghum'
p404
aS'sorrel'
p405
aS'soup'
p406
aS'sour'
p407
aS'sour cream'
p408
aS'soy'
p409
aS'soybeans'
p410
aS'soysauce'
p411
aS'spaghetti'
p412
aS'spareribs'
p413
aS'spatula'
p414
aS'spices'
p415
aS'spicy'
p416
aS'spinach'
p417
aS'split peas'
p418
aS'spoon'
p419
aS'spork'
p420
aS'sprinkles'
p421
aS'sprouts'
p422
aS'spuds'
p423
aS'squash'
p424
aS'squid'
p425
aS'steak'
p426
aS'stew'
p427
aS'stir-fry'
p428
aS'stomach'
p429
aS'stove'
p430
aS'straw'
p431
aS'strawberry'
p432
aS'string bean'
p433
aS'stringy'
p434
aS'strudel'
p435
aS'sub sandwich'
p436
aS'submarine sandwich'
p437
aS'succotash'
p438
aS'suet'
p439
aS'sugar'
p440
aS'summer squash'
p441
aS'sundae'
p442
aS'supper'
p443
aS'sushi'
p444
aS'sustenance'
p445
aS'sweet potato'
p446
aS'Swiss chard'
p447
aS'syrup'
p448
aS'taco'
p449
aS'take-out'
p450
aS'tamale'
p451
aS'tangerine'
p452
aS'tapioca'
p453
aS'taro'
p454
aS'tarragon'
p455
aS'tart'
p456
aS'tea'
p457
aS'teriyaki'
p458
aS'thyme'
p459
aS'toast'
p460
aS'toaster'
p461
aS'toffee'
p462
aS'tofu'
p463
aS'tomatillo'
p464
aS'tomato'
p465
aS'torte'
p466
aS'tortilla'
p467
aS'tuber'
p468
aS'tuna'
p469
aS'turmeric'
p470
aS'turnip'
p471
aS'ugli fruit'
p472
aS'unleavened'
p473
aS'utensils'
p474
aS'vanilla'
p475
aS'veal'
p476
aS'venison'
p477
aS'vinegar'
p478
aS'vitamin'
p479
aS'wafer'
p480
aS'waffle'
p481
aS'walnut'
p482
aS'wasabi'
p483
aS'water'
p484
aS'water chestnut'
p485
aS'watercress'
p486
aS'watermelon'
p487
aS'wheat'
p488
aS'whey'
p489
aS'whipped cream'
p490
aS'wok'
p491
aS'yam'
p492
aS'yeast'
p493
aS'yogurt'
p494
aS'yolk'
p495
aS'zucchini'
p496
a.